; Function Attrs: mustprogress nofree nounwind willreturn memory(read, inaccessiblemem: none) uwtable
define internal range(i32 0, 65539) i32 @compute_shb_option_size(ptr readnone captures(none) %0, i32 noundef %1, i32 %2, ptr noundef readonly captures(none) %3) #9 {
  %.off = add i32 %1, -2
  %switch = icmp ult i32 %.off, 3
  br i1 %switch, label %5, label %12

5:                                                ; preds = %4
  %.val = load ptr, ptr %3, align 8
  %6 = tail call i64 @strlen(ptr noundef nonnull readonly dereferenceable(1) %.val) #19
  %7 = trunc i64 %6 to i32
  %8 = and i32 %7, 3
  %.not.i = icmp eq i32 %8, 0
  %9 = sub nuw nsw i32 4, %8
  %.0.i = select i1 %.not.i, i32 0, i32 %9
  %10 = and i32 %7, 65535
  %11 = add nuw nsw i32 %.0.i, %10
  br label %12

12:                                               ; preds = %4, %5
  %.0 = phi i32 [ %11, %5 ], [ 0, %4 ]
  ret i32 %.0
}